Certificate:
    Data:
        Version: 3 (0x2)
        Serial Number:
            0a:55:b2:82:82:d3:55:72:80:a7:2a:10:2d:7f:47:ab
        Signature Algorithm: sha256WithRSAEncryption
        Issuer: CN=harmful-chan
        Validity
            Not Before: May 28 12:17:51 2022 GMT
            Not After : May 12 12:17:51 2025 GMT
        Subject: CN=sexhansc.com
        Subject Public Key Info:
            Public Key Algorithm: rsaEncryption
                RSA Public-Key: (2048 bit)
                Modulus:
                    00:ab:66:ae:52:33:28:0e:de:b4:92:42:ba:a1:60:
                    b5:f5:2d:9c:af:86:1d:dc:64:f0:6a:68:27:d2:81:
                    5c:9a:7e:c0:5a:be:9e:20:da:2f:d9:61:72:e8:ce:
                    8b:1c:8a:f2:4a:73:66:0d:d4:28:48:17:a4:f7:a9:
                    b7:75:78:fb:b5:39:71:53:70:87:32:55:40:83:94:
                    74:13:b8:db:af:a6:8d:48:ba:7b:30:1b:1d:51:19:
                    35:9d:f7:ca:a4:3c:e8:a4:d1:36:d0:a3:5b:d7:d2:
                    16:80:45:37:96:e0:ee:f5:55:28:9c:41:0f:15:a4:
                    ab:b8:2d:d9:9e:7e:cb:95:69:c7:71:f7:58:6f:43:
                    9c:1c:c8:2a:2e:90:04:a5:e7:53:b5:58:89:49:79:
                    e8:ff:21:b2:f6:64:4f:05:61:83:43:98:05:b7:2c:
                    86:95:1f:98:cf:b3:91:6f:76:85:2c:47:aa:c0:b6:
                    d0:f2:4d:1a:ba:87:3f:51:5f:67:77:a4:e2:dd:88:
                    92:07:9d:b6:43:fe:87:b6:19:dd:fb:a9:c4:ef:2f:
                    bf:11:65:73:02:c2:71:96:30:0f:b7:6c:16:f2:58:
                    41:f1:d0:ff:f5:b5:b5:ef:18:e1:92:24:61:4e:62:
                    c3:6a:97:08:97:3c:47:7d:ed:1f:22:f3:ab:a8:bf:
                    37:0b
                Exponent: 65537 (0x10001)
        X509v3 extensions:
            X509v3 Basic Constraints: 
                CA:FALSE
            X509v3 Subject Key Identifier: 
                C5:32:10:E5:CF:19:81:4F:D6:90:E3:E2:1D:39:7B:7C:20:0A:61:66
            X509v3 Authority Key Identifier: 
                keyid:FD:24:3E:F5:68:FE:D8:AA:15:F5:07:08:0A:5E:D3:B9:A6:48:04:57
                DirName:/CN=harmful-chan
                serial:3E:8B:A0:C7:D3:F8:D3:5A:50:C9:13:E6:78:56:47:C3:69:BF:F3:F7

            X509v3 Extended Key Usage: 
                TLS Web Server Authentication
            X509v3 Key Usage: 
                Digital Signature, Key Encipherment
            X509v3 Subject Alternative Name: 
                DNS:sexhansc.com
    Signature Algorithm: sha256WithRSAEncryption
         b9:10:31:18:62:2e:8a:98:2c:fe:47:70:d7:d8:a1:7a:57:4d:
         17:d6:f6:42:ac:ca:7a:b6:40:e2:23:e5:df:75:6e:86:5c:1b:
         54:94:c6:66:44:e5:26:7c:c9:ab:47:65:65:f1:c1:16:6f:fb:
         4b:a8:9a:99:de:be:63:b5:d8:13:b0:07:5d:25:21:5d:4c:50:
         f5:40:84:52:2c:37:58:da:f1:10:47:80:80:5f:04:fc:fe:86:
         db:82:83:4f:20:8b:e3:f7:cf:2a:59:e2:4d:e9:24:a1:bc:ba:
         44:95:36:22:6f:b6:42:cf:02:e4:e3:95:4f:ea:be:ff:7d:01:
         22:d3:b4:61:d4:1c:92:05:8b:36:e8:26:2b:25:73:ca:05:35:
         20:17:18:1c:78:75:37:51:b6:47:ea:82:e8:a5:ca:c2:0b:b4:
         89:62:19:9e:ef:d4:6f:99:52:0a:d7:08:b5:08:9e:d8:02:4c:
         29:17:9a:1b:7b:cd:3d:30:d6:8c:8e:bf:aa:a3:91:7b:37:6c:
         be:f1:ae:61:44:35:b3:ac:8e:de:3a:46:10:b4:f9:1a:c7:f1:
         14:3b:70:01:d7:f2:07:cb:a1:f6:97:2c:0b:51:6c:bb:15:28:
         23:e3:dd:9f:d1:76:40:fa:b0:99:ce:a0:eb:49:31:24:36:34:
         23:5f:f1:7c
-----BEGIN CERTIFICATE-----
MIIDdTCCAl2gAwIBAgIQClWygoLTVXKApyoQLX9HqzANBgkqhkiG9w0BAQsFADAX
MRUwEwYDVQQDDAxoYXJtZnVsLWNoYW4wHhcNMjIwNTI4MTIxNzUxWhcNMjUwNTEy
MTIxNzUxWjAXMRUwEwYDVQQDDAxzZXhoYW5zYy5jb20wggEiMA0GCSqGSIb3DQEB
AQUAA4IBDwAwggEKAoIBAQCrZq5SMygO3rSSQrqhYLX1LZyvhh3cZPBqaCfSgVya
fsBavp4g2i/ZYXLozoscivJKc2YN1ChIF6T3qbd1ePu1OXFTcIcyVUCDlHQTuNuv
po1IunswGx1RGTWd98qkPOik0TbQo1vX0haARTeW4O71VSicQQ8VpKu4LdmefsuV
acdx91hvQ5wcyCoukASl51O1WIlJeej/IbL2ZE8FYYNDmAW3LIaVH5jPs5FvdoUs
R6rAttDyTRq6hz9RX2d3pOLdiJIHnbZD/oe2Gd37qcTvL78RZXMCwnGWMA+3bBby
WEHx0P/1tbXvGOGSJGFOYsNqlwiXPEd97R8i86uovzcLAgMBAAGjgbwwgbkwCQYD
VR0TBAIwADAdBgNVHQ4EFgQUxTIQ5c8ZgU/WkOPiHTl7fCAKYWYwUgYDVR0jBEsw
SYAU/SQ+9Wj+2KoV9QcICl7TuaZIBFehG6QZMBcxFTATBgNVBAMMDGhhcm1mdWwt
Y2hhboIUPougx9P401pQyRPmeFZHw2m/8/cwEwYDVR0lBAwwCgYIKwYBBQUHAwEw
CwYDVR0PBAQDAgWgMBcGA1UdEQQQMA6CDHNleGhhbnNjLmNvbTANBgkqhkiG9w0B
AQsFAAOCAQEAuRAxGGIuipgs/kdw19iheldNF9b2QqzKerZA4iPl33VuhlwbVJTG
ZkTlJnzJq0dlZfHBFm/7S6iamd6+Y7XYE7AHXSUhXUxQ9UCEUiw3WNrxEEeAgF8E
/P6G24KDTyCL4/fPKlniTekkoby6RJU2Im+2Qs8C5OOVT+q+/30BItO0YdQckgWL
NugmKyVzygU1IBcYHHh1N1G2R+qC6KXKwgu0iWIZnu/Ub5lSCtcItQie2AJMKRea
G3vNPTDWjI6/qqORezdsvvGuYUQ1s6yO3jpGELT5GsfxFDtwAdfyB8uh9pcsC1Fs
uxUoI+Pdn9F2QPqwmc6g60kxJDY0I1/xfA==
-----END CERTIFICATE-----
