Certificate:
    Data:
        Version: 3 (0x2)
        Serial Number: 1 (0x1)
        Signature Algorithm: sha256WithRSAEncryption
        Issuer: C=cn, ST=GuangDong, L=GuangZhou, O=sexhansc.com, OU=hans, CN=sexhansc.com CA/name=EasyRSA/emailAddress=hans@sexhansc.com
        Validity
            Not Before: May 31 11:54:21 2022 GMT
            Not After : May 28 11:54:21 2032 GMT
        Subject: C=cn, ST=GuangDong, L=GuangZhou, O=sexhansc.com, OU=hans, CN=server/name=EasyRSA/emailAddress=hans@sexhansc.com
        Subject Public Key Info:
            Public Key Algorithm: rsaEncryption
                RSA Public-Key: (2048 bit)
                Modulus:
                    00:e2:3f:42:ce:b0:ac:81:82:b1:81:3c:6a:29:c6:
                    d6:4a:03:74:9c:74:1a:e7:ac:ac:e7:58:a2:91:2b:
                    a7:4d:b9:8d:f1:60:e4:56:f7:ee:e6:2f:be:b6:89:
                    34:ea:f0:a0:b5:89:96:04:e9:22:59:b7:4c:ec:45:
                    10:b1:2e:11:8b:2e:fe:a8:cd:d7:49:98:06:45:8d:
                    c7:b0:f7:09:63:cc:24:f0:0b:ec:f3:66:34:cd:e9:
                    c9:24:c1:0e:bc:23:11:54:1d:7e:e0:c7:47:0a:be:
                    fa:02:c7:0d:f8:43:47:6e:8a:8e:05:35:aa:cf:00:
                    c7:2c:c2:f9:9a:e2:63:9b:5e:d9:55:ac:5f:6e:d5:
                    77:d0:79:38:a0:0b:a7:5b:5c:47:64:de:21:08:78:
                    80:7e:ce:af:1d:a6:4e:83:98:a9:b0:db:70:68:62:
                    af:0a:49:5c:93:7b:69:51:3d:dc:55:38:3d:d8:44:
                    6d:b1:2a:e5:a4:5a:7b:02:de:c6:6b:82:5c:1a:6f:
                    64:5d:7b:28:c8:29:e1:06:0a:7f:43:ca:81:67:06:
                    10:bc:d9:d0:5a:23:c3:65:c4:e7:af:d8:ff:14:4f:
                    a2:e2:a2:66:f4:85:e1:c6:4a:c1:95:17:1e:dd:f7:
                    84:ad:71:26:6f:0a:1f:00:81:0d:df:54:ee:28:7e:
                    24:0d
                Exponent: 65537 (0x10001)
        X509v3 extensions:
            X509v3 Basic Constraints: 
                CA:FALSE
            Netscape Cert Type: 
                SSL Server
            Netscape Comment: 
                Easy-RSA Generated Server Certificate
            X509v3 Subject Key Identifier: 
                6F:3D:51:76:97:EA:D7:3E:EE:8D:D1:F5:0F:CD:AB:6B:B9:1F:77:4C
            X509v3 Authority Key Identifier: 
                keyid:2F:E1:40:ED:6B:6B:47:0D:E9:CC:4D:A1:5A:4C:B9:41:05:F6:11:8A
                DirName:/C=cn/ST=GuangDong/L=GuangZhou/O=sexhansc.com/OU=hans/CN=sexhansc.com CA/name=EasyRSA/emailAddress=hans@sexhansc.com
                serial:0B:C0:46:C8:62:CA:47:63:5B:BD:97:67:83:D8:C9:44:BE:88:28:7D

            X509v3 Extended Key Usage: 
                TLS Web Server Authentication
            X509v3 Key Usage: 
                Digital Signature, Key Encipherment
    Signature Algorithm: sha256WithRSAEncryption
         39:ce:07:f4:bd:2b:a0:5b:61:b3:34:cf:c8:3e:3b:37:00:4f:
         3e:0c:f7:1a:69:ed:13:32:a3:b9:c0:19:6b:72:f7:9e:15:d0:
         bc:65:67:18:ed:b9:23:db:2f:b7:31:3f:fb:6e:20:00:79:8b:
         95:07:d4:f2:f0:53:e9:4e:03:89:77:b5:ed:bc:8c:7c:3e:d8:
         d2:97:73:64:95:6f:82:98:bf:66:5f:ba:a4:a5:01:41:d1:8d:
         7c:df:86:22:e1:d4:37:80:bd:1d:be:d6:4d:f6:93:06:ba:60:
         c4:65:b7:e6:14:d3:4b:15:a7:5f:3e:52:b7:05:b4:89:d2:5c:
         cb:01:8c:05:06:09:02:e2:2b:26:da:ed:1d:b4:67:1f:45:f6:
         cb:ea:08:1c:8c:1d:68:ad:1e:2c:e6:29:75:58:6b:07:59:9e:
         94:57:64:52:af:b0:c6:5d:b9:43:fc:17:7e:dc:73:b5:1e:14:
         1c:ef:b9:ae:60:11:67:46:9e:58:46:8f:b7:15:12:2e:67:27:
         ab:fc:11:90:62:35:6e:35:66:c6:d3:e7:0f:ee:2b:44:d3:db:
         d3:1b:6d:22:d9:75:f2:75:10:0e:9b:f1:8a:82:9d:8e:db:84:
         0f:90:d2:2d:1c:d1:40:f5:ed:61:12:9b:76:fe:0d:34:dc:33:
         1a:5f:7a:6d
-----BEGIN CERTIFICATE-----
MIIFTTCCBDWgAwIBAgIBATANBgkqhkiG9w0BAQsFADCBqTELMAkGA1UEBhMCY24x
EjAQBgNVBAgTCUd1YW5nRG9uZzESMBAGA1UEBxMJR3VhbmdaaG91MRUwEwYDVQQK
EwxzZXhoYW5zYy5jb20xDTALBgNVBAsTBGhhbnMxGDAWBgNVBAMTD3NleGhhbnNj
LmNvbSBDQTEQMA4GA1UEKRMHRWFzeVJTQTEgMB4GCSqGSIb3DQEJARYRaGFuc0Bz
ZXhoYW5zYy5jb20wHhcNMjIwNTMxMTE1NDIxWhcNMzIwNTI4MTE1NDIxWjCBoDEL
MAkGA1UEBhMCY24xEjAQBgNVBAgTCUd1YW5nRG9uZzESMBAGA1UEBxMJR3Vhbmda
aG91MRUwEwYDVQQKEwxzZXhoYW5zYy5jb20xDTALBgNVBAsTBGhhbnMxDzANBgNV
BAMTBnNlcnZlcjEQMA4GA1UEKRMHRWFzeVJTQTEgMB4GCSqGSIb3DQEJARYRaGFu
c0BzZXhoYW5zYy5jb20wggEiMA0GCSqGSIb3DQEBAQUAA4IBDwAwggEKAoIBAQDi
P0LOsKyBgrGBPGopxtZKA3ScdBrnrKznWKKRK6dNuY3xYORW9+7mL762iTTq8KC1
iZYE6SJZt0zsRRCxLhGLLv6ozddJmAZFjcew9wljzCTwC+zzZjTN6ckkwQ68IxFU
HX7gx0cKvvoCxw34Q0duio4FNarPAMcswvma4mObXtlVrF9u1XfQeTigC6dbXEdk
3iEIeIB+zq8dpk6DmKmw23BoYq8KSVyTe2lRPdxVOD3YRG2xKuWkWnsC3sZrglwa
b2RdeyjIKeEGCn9DyoFnBhC82dBaI8NlxOev2P8UT6Liomb0heHGSsGVFx7d94St
cSZvCh8AgQ3fVO4ofiQNAgMBAAGjggGFMIIBgTAJBgNVHRMEAjAAMBEGCWCGSAGG
+EIBAQQEAwIGQDA0BglghkgBhvhCAQ0EJxYlRWFzeS1SU0EgR2VuZXJhdGVkIFNl
cnZlciBDZXJ0aWZpY2F0ZTAdBgNVHQ4EFgQUbz1Rdpfq1z7ujdH1D82ra7kfd0ww
gekGA1UdIwSB4TCB3oAUL+FA7WtrRw3pzE2hWky5QQX2EYqhga+kgawwgakxCzAJ
BgNVBAYTAmNuMRIwEAYDVQQIEwlHdWFuZ0RvbmcxEjAQBgNVBAcTCUd1YW5nWmhv
dTEVMBMGA1UEChMMc2V4aGFuc2MuY29tMQ0wCwYDVQQLEwRoYW5zMRgwFgYDVQQD
Ew9zZXhoYW5zYy5jb20gQ0ExEDAOBgNVBCkTB0Vhc3lSU0ExIDAeBgkqhkiG9w0B
CQEWEWhhbnNAc2V4aGFuc2MuY29tghQLwEbIYspHY1u9l2eD2MlEvogofTATBgNV
HSUEDDAKBggrBgEFBQcDATALBgNVHQ8EBAMCBaAwDQYJKoZIhvcNAQELBQADggEB
ADnOB/S9K6BbYbM0z8g+OzcATz4M9xpp7RMyo7nAGWty954V0LxlZxjtuSPbL7cx
P/tuIAB5i5UH1PLwU+lOA4l3te28jHw+2NKXc2SVb4KYv2ZfuqSlAUHRjXzfhiLh
1DeAvR2+1k32kwa6YMRlt+YU00sVp18+UrcFtInSXMsBjAUGCQLiKyba7R20Zx9F
9svqCByMHWitHizmKXVYawdZnpRXZFKvsMZduUP8F37cc7UeFBzvua5gEWdGnlhG
j7cVEi5nJ6v8EZBiNW41ZsbT5w/uK0TT29MbbSLZdfJ1EA6b8YqCnY7bhA+Q0i0c
0UD17WESm3b+DTTcMxpfem0=
-----END CERTIFICATE-----
